target datalayout = "e-m:e-p270:32:32-p271:32:32-p272:64:64-i64:64-i128:128-f80:128-n8:16:32:64-S128"
target triple = "x86_64-pc-linux-gnu"

%"class.smt::dyn_ack_manager" = type { ptr, ptr, ptr, %class.obj_pair_map, %class.svector, %class.svector, i32, i32, i32, [4 x i8], %class.obj_pair_hashtable, %class.obj_map, %"struct.smt::dyn_ack_manager::_triple" }
%class.obj_pair_map = type { %class.core_hashtable }
%class.core_hashtable = type <{ ptr, i32, i32, i32, [4 x i8] }>
%class.svector = type { %class.vector }
%class.vector = type { ptr }
%class.obj_pair_hashtable = type { %class.core_hashtable.base.2, [4 x i8] }
%class.core_hashtable.base.2 = type <{ ptr, i32, i32, i32 }>
%class.obj_map = type { %class.core_hashtable.3 }
%class.core_hashtable.3 = type <{ ptr, i32, i32, i32, [4 x i8] }>
%"struct.smt::dyn_ack_manager::_triple" = type { %class.obj_triple_map, %class.svector.11, %class.svector.11, i32, i32, i32, [4 x i8], %class.obj_triple_hashtable, %class.obj_map.16 }
%class.obj_triple_map = type { %class.core_hashtable.7 }
%class.core_hashtable.7 = type <{ ptr, i32, i32, i32, [4 x i8] }>
%class.svector.11 = type { %class.vector.12 }
%class.vector.12 = type { ptr }
%class.obj_triple_hashtable = type { %class.core_hashtable.base.15, [4 x i8] }
%class.core_hashtable.base.15 = type <{ ptr, i32, i32, i32 }>
%class.obj_map.16 = type { %class.core_hashtable.17 }
%class.core_hashtable.17 = type <{ ptr, i32, i32, i32, [4 x i8] }>
%struct.triple = type { ptr, ptr, ptr }
%class.ast = type { i32, i32, i32, i32 }

; Function Attrs: mustprogress nounwind uwtable
define linkonce_odr hidden noundef i32 @_ZNK3ast13get_ref_countEv(ptr noundef nonnull align 4 dereferenceable(16) %0) #4 comdat align 2 {
  %2 = alloca ptr, align 8
  store ptr %0, ptr %2, align 8, !tbaa !553
  %3 = load ptr, ptr %2, align 8
  %4 = getelementptr inbounds nuw %class.ast, ptr %3, i32 0, i32 2
  %5 = load i32, ptr %4, align 4, !tbaa !754
  ret i32 %5
}

; Function Attrs: mustprogress nounwind uwtable
define linkonce_odr hidden void @_ZN3ast7dec_refEv(ptr noundef nonnull align 4 dereferenceable(16) %0) #4 comdat align 2 {
  %2 = alloca ptr, align 8
  store ptr %0, ptr %2, align 8, !tbaa !553
  %3 = load ptr, ptr %2, align 8
  %4 = getelementptr inbounds nuw %class.ast, ptr %3, i32 0, i32 2
  %5 = load i32, ptr %4, align 4, !tbaa !754
  %6 = add i32 %5, -1
  store i32 %6, ptr %4, align 4, !tbaa !754
  ret void
}

; Function Attrs: mustprogress nounwind uwtable
define linkonce_odr hidden noundef i32 @_ZNK6vectorI6tripleIP3appS2_S2_ELb0EjE4sizeEv(ptr noundef nonnull align 8 dereferenceable(8) %0) #4 comdat align 2 {
  %2 = alloca i32, align 4
  %3 = alloca ptr, align 8
  store ptr %0, ptr %3, align 8, !tbaa !561
  %4 = load ptr, ptr %3, align 8
  %5 = getelementptr inbounds nuw %class.vector.12, ptr %4, i32 0, i32 0
  %6 = load ptr, ptr %5, align 8, !tbaa !563
  %7 = icmp eq ptr %6, null
  br i1 %7, label %8, label %9

8:                                                ; preds = %1
  store i32 0, ptr %2, align 4
  br label %14

9:                                                ; preds = %1
  %10 = getelementptr inbounds nuw %class.vector.12, ptr %4, i32 0, i32 0
  %11 = load ptr, ptr %10, align 8, !tbaa !563
  %12 = getelementptr inbounds i32, ptr %11, i64 -1
  %13 = load i32, ptr %12, align 4, !tbaa !8
  store i32 %13, ptr %2, align 4
  br label %14

14:                                               ; preds = %9, %8
  %15 = load i32, ptr %2, align 4
  ret i32 %15
}

; Function Attrs: mustprogress nounwind uwtable
define linkonce_odr hidden void @_ZN6vectorI6tripleIP3appS2_S2_ELb0EjE5resetEv(ptr noundef nonnull align 8 dereferenceable(8) %0) #4 comdat align 2 {
  %2 = alloca ptr, align 8
  store ptr %0, ptr %2, align 8, !tbaa !561
  %3 = load ptr, ptr %2, align 8
  %4 = getelementptr inbounds nuw %class.vector.12, ptr %3, i32 0, i32 0
  %5 = load ptr, ptr %4, align 8, !tbaa !563
  %6 = icmp ne ptr %5, null
  br i1 %6, label %7, label %11

7:                                                ; preds = %1
  %8 = getelementptr inbounds nuw %class.vector.12, ptr %3, i32 0, i32 0
  %9 = load ptr, ptr %8, align 8, !tbaa !563
  %10 = getelementptr inbounds i32, ptr %9, i64 -1
  store i32 0, ptr %10, align 4, !tbaa !8
  br label %11

11:                                               ; preds = %7, %1
  ret void
}

; Function Attrs: mustprogress uwtable
define linkonce_odr hidden void @_ZN11ast_manager7dec_refEP3ast(ptr noundef nonnull align 8 dereferenceable(976) %0, ptr noundef %1) #6 comdat align 2 {
  %3 = alloca ptr, align 8
  %4 = alloca ptr, align 8
  store ptr %0, ptr %3, align 8, !tbaa !34
  store ptr %1, ptr %4, align 8, !tbaa !553
  %5 = load ptr, ptr %3, align 8
  %6 = load ptr, ptr %4, align 8, !tbaa !553
  %7 = icmp ne ptr %6, null
  br i1 %7, label %8, label %16

8:                                                ; preds = %2
  %9 = load ptr, ptr %4, align 8, !tbaa !553
  call void @_ZN3ast7dec_refEv(ptr noundef nonnull align 4 dereferenceable(16) %9)
  %10 = load ptr, ptr %4, align 8, !tbaa !553
  %11 = call noundef i32 @_ZNK3ast13get_ref_countEv(ptr noundef nonnull align 4 dereferenceable(16) %10)
  %12 = icmp eq i32 %11, 0
  br i1 %12, label %13, label %15

13:                                               ; preds = %8
  %14 = load ptr, ptr %4, align 8, !tbaa !553
  call void @_ZN11ast_manager11delete_nodeEP3ast(ptr noundef nonnull align 8 dereferenceable(976) %5, ptr noundef %14)
  br label %15

15:                                               ; preds = %13, %8
  br label %16

16:                                               ; preds = %15, %2
  ret void
}

; Function Attrs: mustprogress nounwind uwtable
define linkonce_odr hidden noundef ptr @_ZN6vectorI6tripleIP3appS2_S2_ELb0EjE3endEv(ptr noundef nonnull align 8 dereferenceable(8) %0) #4 comdat align 2 {
  %2 = alloca ptr, align 8
  store ptr %0, ptr %2, align 8, !tbaa !561
  %3 = load ptr, ptr %2, align 8
  %4 = getelementptr inbounds nuw %class.vector.12, ptr %3, i32 0, i32 0
  %5 = load ptr, ptr %4, align 8, !tbaa !563
  %6 = call noundef i32 @_ZNK6vectorI6tripleIP3appS2_S2_ELb0EjE4sizeEv(ptr noundef nonnull align 8 dereferenceable(8) %3)
  %7 = zext i32 %6 to i64
  %8 = getelementptr inbounds nuw %struct.triple, ptr %5, i64 %7
  ret ptr %8
}

; Function Attrs: mustprogress nounwind uwtable
define linkonce_odr hidden noundef ptr @_ZN6vectorI6tripleIP3appS2_S2_ELb0EjE5beginEv(ptr noundef nonnull align 8 dereferenceable(8) %0) #4 comdat align 2 {
  %2 = alloca ptr, align 8
  store ptr %0, ptr %2, align 8, !tbaa !561
  %3 = load ptr, ptr %2, align 8
  %4 = getelementptr inbounds nuw %class.vector.12, ptr %3, i32 0, i32 0
  %5 = load ptr, ptr %4, align 8, !tbaa !563
  ret ptr %5
}

; Function Attrs: mustprogress uwtable
define hidden void @_ZN3smt15dyn_ack_manager17reset_app_triplesEv(ptr noundef nonnull align 8 dereferenceable(232) %0) #6 align 2 {
  %2 = alloca ptr, align 8
  %3 = alloca ptr, align 8
  %4 = alloca ptr, align 8
  %5 = alloca ptr, align 8
  %6 = alloca ptr, align 8
  store ptr %0, ptr %2, align 8, !tbaa !28
  %7 = load ptr, ptr %2, align 8
  call void @llvm.lifetime.start.p0(i64 8, ptr %3) #3
  %8 = getelementptr inbounds nuw %"class.smt::dyn_ack_manager", ptr %7, i32 0, i32 12
  %9 = getelementptr inbounds nuw %"struct.smt::dyn_ack_manager::_triple", ptr %8, i32 0, i32 1
  store ptr %9, ptr %3, align 8, !tbaa !545
  call void @llvm.lifetime.start.p0(i64 8, ptr %4) #3
  %10 = load ptr, ptr %3, align 8, !tbaa !545
  %11 = call noundef ptr @_ZN6vectorI6tripleIP3appS2_S2_ELb0EjE5beginEv(ptr noundef nonnull align 8 dereferenceable(8) %10)
  store ptr %11, ptr %4, align 8, !tbaa !547
  call void @llvm.lifetime.start.p0(i64 8, ptr %5) #3
  %12 = load ptr, ptr %3, align 8, !tbaa !545
  %13 = call noundef ptr @_ZN6vectorI6tripleIP3appS2_S2_ELb0EjE3endEv(ptr noundef nonnull align 8 dereferenceable(8) %12)
  store ptr %13, ptr %5, align 8, !tbaa !547
  br label %14

14:                                               ; preds = %36, %1
  %15 = load ptr, ptr %4, align 8, !tbaa !547
  %16 = load ptr, ptr %5, align 8, !tbaa !547
  %17 = icmp ne ptr %15, %16
  br i1 %17, label %19, label %18

18:                                               ; preds = %14
  call void @llvm.lifetime.end.p0(i64 8, ptr %5) #3
  call void @llvm.lifetime.end.p0(i64 8, ptr %4) #3
  call void @llvm.lifetime.end.p0(i64 8, ptr %3) #3
  br label %39

19:                                               ; preds = %14
  call void @llvm.lifetime.start.p0(i64 8, ptr %6) #3
  %20 = load ptr, ptr %4, align 8, !tbaa !547
  store ptr %20, ptr %6, align 8, !tbaa !547
  %21 = getelementptr inbounds nuw %"class.smt::dyn_ack_manager", ptr %7, i32 0, i32 1
  %22 = load ptr, ptr %21, align 8, !tbaa !541
  %23 = load ptr, ptr %6, align 8, !tbaa !547
  %24 = getelementptr inbounds nuw %struct.triple, ptr %23, i32 0, i32 0
  %25 = load ptr, ptr %24, align 8, !tbaa !548
  call void @_ZN11ast_manager7dec_refEP3ast(ptr noundef nonnull align 8 dereferenceable(976) %22, ptr noundef %25)
  %26 = getelementptr inbounds nuw %"class.smt::dyn_ack_manager", ptr %7, i32 0, i32 1
  %27 = load ptr, ptr %26, align 8, !tbaa !541
  %28 = load ptr, ptr %6, align 8, !tbaa !547
  %29 = getelementptr inbounds nuw %struct.triple, ptr %28, i32 0, i32 1
  %30 = load ptr, ptr %29, align 8, !tbaa !550
  call void @_ZN11ast_manager7dec_refEP3ast(ptr noundef nonnull align 8 dereferenceable(976) %27, ptr noundef %30)
  %31 = getelementptr inbounds nuw %"class.smt::dyn_ack_manager", ptr %7, i32 0, i32 1
  %32 = load ptr, ptr %31, align 8, !tbaa !541
  %33 = load ptr, ptr %6, align 8, !tbaa !547
  %34 = getelementptr inbounds nuw %struct.triple, ptr %33, i32 0, i32 2
  %35 = load ptr, ptr %34, align 8, !tbaa !551
  call void @_ZN11ast_manager7dec_refEP3ast(ptr noundef nonnull align 8 dereferenceable(976) %32, ptr noundef %35)
  call void @llvm.lifetime.end.p0(i64 8, ptr %6) #3
  br label %36

36:                                               ; preds = %19
  %37 = load ptr, ptr %4, align 8, !tbaa !547
  %38 = getelementptr inbounds nuw %struct.triple, ptr %37, i32 1
  store ptr %38, ptr %4, align 8, !tbaa !547
  br label %14

39:                                               ; preds = %18
  %40 = getelementptr inbounds nuw %"class.smt::dyn_ack_manager", ptr %7, i32 0, i32 12
  %41 = getelementptr inbounds nuw %"struct.smt::dyn_ack_manager::_triple", ptr %40, i32 0, i32 1
  call void @_ZN6vectorI6tripleIP3appS2_S2_ELb0EjE5resetEv(ptr noundef nonnull align 8 dereferenceable(8) %41)
  ret void
}