; Function Attrs: mustprogress uwtable
define hidden void @_ZN3smt15dyn_ack_manager17reset_app_triplesEv(ptr noundef nonnull readonly align 8 captures(none) dereferenceable(232) %0) local_unnamed_addr #4 align 2 {
  %2 = getelementptr inbounds nuw i8, ptr %0, i64 152
  %3 = load ptr, ptr %2, align 8, !tbaa !548
  %4 = icmp eq ptr %3, null
  br i1 %4, label %_ZN6vectorI6tripleIP3appS2_S2_ELb0EjE5resetEv.exit, label %_ZN6vectorI6tripleIP3appS2_S2_ELb0EjE3endEv.exit

_ZN6vectorI6tripleIP3appS2_S2_ELb0EjE3endEv.exit: ; preds = %1
  %5 = getelementptr inbounds i8, ptr %3, i64 -4
  %6 = load i32, ptr %5, align 4, !tbaa !541
  %7 = zext i32 %6 to i64
  %8 = getelementptr inbounds nuw %struct.triple, ptr %3, i64 %7
  %.not15 = icmp eq i32 %6, 0
  br i1 %.not15, label %._crit_edge.thread22, label %.lr.ph

.lr.ph:                                           ; preds = %_ZN6vectorI6tripleIP3appS2_S2_ELb0EjE3endEv.exit
  %9 = getelementptr inbounds nuw i8, ptr %0, i64 8
  br label %12

._crit_edge:                                      ; preds = %_ZN11ast_manager7dec_refEP3ast.exit14
  %.pre18 = load ptr, ptr %2, align 8, !tbaa !548
  %.not.i = icmp eq ptr %.pre18, null
  br i1 %.not.i, label %_ZN6vectorI6tripleIP3appS2_S2_ELb0EjE5resetEv.exit, label %._crit_edge.thread22

._crit_edge.thread22:                             ; preds = %_ZN6vectorI6tripleIP3appS2_S2_ELb0EjE3endEv.exit, %._crit_edge
  %10 = phi ptr [ %.pre18, %._crit_edge ], [ %3, %_ZN6vectorI6tripleIP3appS2_S2_ELb0EjE3endEv.exit ]
  %11 = getelementptr inbounds i8, ptr %10, i64 -4
  store i32 0, ptr %11, align 4, !tbaa !541
  br label %_ZN6vectorI6tripleIP3appS2_S2_ELb0EjE5resetEv.exit

_ZN6vectorI6tripleIP3appS2_S2_ELb0EjE5resetEv.exit: ; preds = %1, %._crit_edge, %._crit_edge.thread22
  ret void

12:                                               ; preds = %.lr.ph, %_ZN11ast_manager7dec_refEP3ast.exit14
  %.016 = phi ptr [ %3, %.lr.ph ], [ %39, %_ZN11ast_manager7dec_refEP3ast.exit14 ]
  %13 = load ptr, ptr %9, align 8, !tbaa !542
  %14 = load ptr, ptr %.016, align 8, !tbaa !549
  %.not.i10 = icmp eq ptr %14, null
  br i1 %.not.i10, label %_ZN11ast_manager7dec_refEP3ast.exit, label %15

15:                                               ; preds = %12
  %16 = getelementptr inbounds nuw i8, ptr %14, i64 8
  %17 = load i32, ptr %16, align 4, !tbaa !545
  %18 = add i32 %17, -1
  store i32 %18, ptr %16, align 4, !tbaa !545
  %19 = icmp eq i32 %18, 0
  br i1 %19, label %20, label %_ZN11ast_manager7dec_refEP3ast.exit

20:                                               ; preds = %15
  tail call void @_ZN11ast_manager11delete_nodeEP3ast(ptr noundef nonnull align 8 dereferenceable(976) %13, ptr noundef nonnull %14)
  %.pre = load ptr, ptr %9, align 8, !tbaa !542
  br label %_ZN11ast_manager7dec_refEP3ast.exit

_ZN11ast_manager7dec_refEP3ast.exit:              ; preds = %12, %15, %20
  %21 = phi ptr [ %13, %12 ], [ %13, %15 ], [ %.pre, %20 ]
  %22 = getelementptr inbounds nuw i8, ptr %.016, i64 8
  %23 = load ptr, ptr %22, align 8, !tbaa !551
  %.not.i11 = icmp eq ptr %23, null
  br i1 %.not.i11, label %_ZN11ast_manager7dec_refEP3ast.exit12, label %24

24:                                               ; preds = %_ZN11ast_manager7dec_refEP3ast.exit
  %25 = getelementptr inbounds nuw i8, ptr %23, i64 8
  %26 = load i32, ptr %25, align 4, !tbaa !545
  %27 = add i32 %26, -1
  store i32 %27, ptr %25, align 4, !tbaa !545
  %28 = icmp eq i32 %27, 0
  br i1 %28, label %29, label %_ZN11ast_manager7dec_refEP3ast.exit12

29:                                               ; preds = %24
  tail call void @_ZN11ast_manager11delete_nodeEP3ast(ptr noundef nonnull align 8 dereferenceable(976) %21, ptr noundef nonnull %23)
  %.pre17 = load ptr, ptr %9, align 8, !tbaa !542
  br label %_ZN11ast_manager7dec_refEP3ast.exit12

_ZN11ast_manager7dec_refEP3ast.exit12:            ; preds = %_ZN11ast_manager7dec_refEP3ast.exit, %24, %29
  %30 = phi ptr [ %21, %_ZN11ast_manager7dec_refEP3ast.exit ], [ %21, %24 ], [ %.pre17, %29 ]
  %31 = getelementptr inbounds nuw i8, ptr %.016, i64 16
  %32 = load ptr, ptr %31, align 8, !tbaa !552
  %.not.i13 = icmp eq ptr %32, null
  br i1 %.not.i13, label %_ZN11ast_manager7dec_refEP3ast.exit14, label %33

33:                                               ; preds = %_ZN11ast_manager7dec_refEP3ast.exit12
  %34 = getelementptr inbounds nuw i8, ptr %32, i64 8
  %35 = load i32, ptr %34, align 4, !tbaa !545
  %36 = add i32 %35, -1
  store i32 %36, ptr %34, align 4, !tbaa !545
  %37 = icmp eq i32 %36, 0
  br i1 %37, label %38, label %_ZN11ast_manager7dec_refEP3ast.exit14

38:                                               ; preds = %33
  tail call void @_ZN11ast_manager11delete_nodeEP3ast(ptr noundef nonnull align 8 dereferenceable(976) %30, ptr noundef nonnull %32)
  br label %_ZN11ast_manager7dec_refEP3ast.exit14

_ZN11ast_manager7dec_refEP3ast.exit14:            ; preds = %_ZN11ast_manager7dec_refEP3ast.exit12, %33, %38
  %39 = getelementptr inbounds nuw i8, ptr %.016, i64 24
  %.not = icmp eq ptr %39, %8
  br i1 %.not, label %._crit_edge, label %12
}